; Function Attrs: mustprogress noreturn uwtable
define hidden noundef float @_ZN4nori4Warp27squareToCosineHemispherePdfERKNS_7TVectorIfLi3EEE(ptr nocapture noundef nonnull readnone align 4 dereferenceable(12) %0) local_unnamed_addr #5 align 2 personality ptr @__gxx_personality_v0 {
  %2 = tail call ptr @__cxa_allocate_exception(i64 16) #11
  invoke void @_ZN4nori13NoriExceptionC2IJEEEPKcDpRKT_(ptr noundef nonnull align 8 dereferenceable(16) %2, ptr noundef nonnull @.str.9)
          to label %3 unwind label %4

3:                                                ; preds = %1
  tail call void @__cxa_throw(ptr nonnull %2, ptr nonnull @_ZTIN4nori13NoriExceptionE, ptr nonnull @_ZN4nori13NoriExceptionD2Ev) #12
  unreachable

4:                                                ; preds = %1
  %5 = landingpad { ptr, i32 }
          cleanup
  tail call void @__cxa_free_exception(ptr %2) #11
  resume { ptr, i32 } %5
}